target datalayout = "e-m:e-p270:32:32-p271:32:32-p272:64:64-i64:64-i128:128-f80:128-n8:16:32:64-S128"
target triple = "x86_64-pc-linux-gnu"

%struct.PaUtilRingBuffer = type { i64, i64, i64, i64, i64, i64, ptr }

; Function Attrs: nounwind uwtable
define i64 @PaUtil_GetRingBufferReadAvailable(ptr noundef %0) #0 {
  %2 = alloca ptr, align 8
  store ptr %0, ptr %2, align 8, !tbaa !3
  %3 = load ptr, ptr %2, align 8, !tbaa !3
  %4 = getelementptr inbounds nuw %struct.PaUtilRingBuffer, ptr %3, i32 0, i32 1
  %5 = load volatile i64, ptr %4, align 8, !tbaa !19
  %6 = load ptr, ptr %2, align 8, !tbaa !3
  %7 = getelementptr inbounds nuw %struct.PaUtilRingBuffer, ptr %6, i32 0, i32 2
  %8 = load volatile i64, ptr %7, align 8, !tbaa !18
  %9 = sub nsw i64 %5, %8
  %10 = load ptr, ptr %2, align 8, !tbaa !3
  %11 = getelementptr inbounds nuw %struct.PaUtilRingBuffer, ptr %10, i32 0, i32 3
  %12 = load i64, ptr %11, align 8, !tbaa !15
  %13 = and i64 %9, %12
  ret i64 %13
}

; Function Attrs: nounwind uwtable
define i64 @PaUtil_GetRingBufferWriteAvailable(ptr noundef %0) #0 {
  %2 = alloca ptr, align 8
  store ptr %0, ptr %2, align 8, !tbaa !3
  %3 = load ptr, ptr %2, align 8, !tbaa !3
  %4 = getelementptr inbounds nuw %struct.PaUtilRingBuffer, ptr %3, i32 0, i32 0
  %5 = load i64, ptr %4, align 8, !tbaa !11
  %6 = load ptr, ptr %2, align 8, !tbaa !3
  %7 = call i64 @PaUtil_GetRingBufferReadAvailable(ptr noundef %6)
  %8 = sub nsw i64 %5, %7
  ret i64 %8
}