; Function Attrs: mustprogress nofree norecurse nounwind willreturn memory(argmem: readwrite, inaccessiblemem: readwrite) uwtable
define i64 @PaUtil_GetRingBufferWriteAvailable(ptr noundef %0) local_unnamed_addr #1 {
  %2 = load i64, ptr %0, align 8, !tbaa !3
  %3 = getelementptr inbounds nuw i8, ptr %0, i64 8
  %4 = load volatile i64, ptr %3, align 8, !tbaa !12
  %5 = getelementptr inbounds nuw i8, ptr %0, i64 16
  %6 = load volatile i64, ptr %5, align 8, !tbaa !11
  %7 = sub nsw i64 %4, %6
  %8 = getelementptr inbounds nuw i8, ptr %0, i64 24
  %9 = load i64, ptr %8, align 8, !tbaa !13
  %10 = and i64 %7, %9
  %11 = sub nsw i64 %2, %10
  ret i64 %11
}